target datalayout = "e-m:e-p270:32:32-p271:32:32-p272:64:64-i64:64-i128:128-f80:128-n8:16:32:64-S128"
target triple = "x86_64-pc-linux-gnu"

%struct.RTSPMessageHeader = type { i32, i32, i32, i64, i64, [8 x %struct.RTSPTransportField], i32, [512 x i8], [4096 x i8], [64 x i8], [64 x i8], i32, i32, [256 x i8], [64 x i8], [64 x i8] }
%struct.RTSPTransportField = type { i32, i32, i32, i32, i32, i32, i32, i32, i32, i32, %struct.sockaddr_storage, [47 x i8], i32, i32 }
%struct.sockaddr_storage = type { i16, [118 x i8], i64 }
%struct.AVFormatContext = type { ptr, ptr, ptr, ptr, ptr, i32, i32, ptr, i32, ptr, i32, ptr, ptr, i64, i64, i64, i32, i32, i32, i64, i64, ptr, i32, i32, ptr, i32, i32, i32, i32, ptr, i64, i32, i32, %struct.AVIOInterruptCB, i32, i32, i32, i32, i64, i32, i32, i32, i32, i32, i32, i32, i32, i32, i32, i32, i32, i64, i32, i32, i32, i32, i32, ptr, ptr, ptr, ptr, i32, ptr, ptr, ptr, ptr, i32, ptr, ptr, i64, ptr, ptr, ptr, i64 }
%struct.AVIOInterruptCB = type { ptr, ptr }
%struct.RTSPState = type { ptr, ptr, i32, ptr, i32, i64, i32, [512 x i8], i32, i64, i32, i32, i32, [64 x i8], [128 x i8], %struct.HTTPAuthState, [2048 x i8], ptr, i32, ptr, ptr, [1024 x i8], ptr, i64, [4096 x i8], ptr, i32, i32, ptr, i32, i32, ptr, i32, i64, ptr, i32, i32, i32, i32, i32, i32, i32, i32, i32, i32, i64, i32, ptr, [4 x i8], i32, i32, ptr }
%struct.HTTPAuthState = type { i32, [200 x i8], %struct.DigestParams, i32 }
%struct.DigestParams = type { [300 x i8], [10 x i8], [30 x i8], [300 x i8], [10 x i8], i32 }

@.str = private unnamed_addr constant [17 x i8] c"Parsing[%d]: %s\0A\00", align 1
@.str.1 = private unnamed_addr constant [26 x i8] c"RTSP: Unexpected Command\0A\00", align 1
@.str.2 = private unnamed_addr constant [51 x i8] c"Public: ANNOUNCE, PAUSE, SETUP, TEARDOWN, RECORD\0D\0A\00", align 1
@.str.11 = private unnamed_addr constant [18 x i8] c"Message too long\0A\00", align 1

; Function Attrs: inlinehint nounwind uwtable
define internal i32 @read_line(ptr noundef %0, ptr noundef %1, i32 noundef %2, ptr noundef %3) #3 {
  %5 = alloca i32, align 4
  %6 = alloca ptr, align 8
  %7 = alloca ptr, align 8
  %8 = alloca i32, align 4
  %9 = alloca ptr, align 8
  %10 = alloca ptr, align 8
  %11 = alloca i32, align 4
  %12 = alloca i32, align 4
  %13 = alloca i32, align 4
  store ptr %0, ptr %6, align 8, !tbaa !4
  store ptr %1, ptr %7, align 8, !tbaa !40
  store i32 %2, ptr %8, align 4, !tbaa !28
  store ptr %3, ptr %9, align 8, !tbaa !41
  call void @llvm.lifetime.start.p0(i64 8, ptr %10) #10
  %14 = load ptr, ptr %6, align 8, !tbaa !4
  %15 = getelementptr inbounds nuw %struct.AVFormatContext, ptr %14, i32 0, i32 3
  %16 = load ptr, ptr %15, align 8, !tbaa !9
  store ptr %16, ptr %10, align 8, !tbaa !26
  call void @llvm.lifetime.start.p0(i64 4, ptr %11) #10
  store i32 0, ptr %11, align 4, !tbaa !28
  call void @llvm.lifetime.start.p0(i64 4, ptr %12) #10
  store i32 0, ptr %12, align 4, !tbaa !28
  %17 = load ptr, ptr %9, align 8, !tbaa !41
  store i32 0, ptr %17, align 4, !tbaa !28
  br label %18

18:                                               ; preds = %66, %4
  %19 = load ptr, ptr %10, align 8, !tbaa !26
  %20 = getelementptr inbounds nuw %struct.RTSPState, ptr %19, i32 0, i32 1
  %21 = load ptr, ptr %20, align 8, !tbaa !43
  %22 = load ptr, ptr %7, align 8, !tbaa !40
  %23 = load i32, ptr %11, align 4, !tbaa !28
  %24 = sext i32 %23 to i64
  %25 = getelementptr inbounds i8, ptr %22, i64 %24
  %26 = call i32 @ffurl_read_complete(ptr noundef %21, ptr noundef %25, i32 noundef 1)
  store i32 %26, ptr %12, align 4, !tbaa !28
  %27 = load i32, ptr %12, align 4, !tbaa !28
  %28 = icmp sle i32 %27, 0
  br i1 %28, label %29, label %37

29:                                               ; preds = %18
  %30 = load i32, ptr %12, align 4, !tbaa !28
  %31 = icmp ne i32 %30, 0
  br i1 %31, label %32, label %34

32:                                               ; preds = %29
  %33 = load i32, ptr %12, align 4, !tbaa !28
  br label %35

34:                                               ; preds = %29
  br label %35

35:                                               ; preds = %34, %32
  %36 = phi i32 [ %33, %32 ], [ -541478725, %34 ]
  store i32 %36, ptr %5, align 4
  store i32 1, ptr %13, align 4
  br label %72

37:                                               ; preds = %18
  %38 = load ptr, ptr %7, align 8, !tbaa !40
  %39 = load i32, ptr %11, align 4, !tbaa !28
  %40 = sext i32 %39 to i64
  %41 = getelementptr inbounds i8, ptr %38, i64 %40
  %42 = load i8, ptr %41, align 1, !tbaa !44
  %43 = sext i8 %42 to i32
  %44 = icmp eq i32 %43, 13
  br i1 %44, label %45, label %46

45:                                               ; preds = %37
  br label %65

46:                                               ; preds = %37
  %47 = load ptr, ptr %7, align 8, !tbaa !40
  %48 = load i32, ptr %11, align 4, !tbaa !28
  %49 = sext i32 %48 to i64
  %50 = getelementptr inbounds i8, ptr %47, i64 %49
  %51 = load i8, ptr %50, align 1, !tbaa !44
  %52 = sext i8 %51 to i32
  %53 = icmp eq i32 %52, 10
  br i1 %53, label %54, label %61

54:                                               ; preds = %46
  %55 = load ptr, ptr %7, align 8, !tbaa !40
  %56 = load i32, ptr %11, align 4, !tbaa !28
  %57 = sext i32 %56 to i64
  %58 = getelementptr inbounds i8, ptr %55, i64 %57
  store i8 0, ptr %58, align 1, !tbaa !44
  %59 = load i32, ptr %11, align 4, !tbaa !28
  %60 = load ptr, ptr %9, align 8, !tbaa !41
  store i32 %59, ptr %60, align 4, !tbaa !28
  store i32 0, ptr %5, align 4
  store i32 1, ptr %13, align 4
  br label %72

61:                                               ; preds = %46
  %62 = load i32, ptr %11, align 4, !tbaa !28
  %63 = add nsw i32 %62, 1
  store i32 %63, ptr %11, align 4, !tbaa !28
  br label %64

64:                                               ; preds = %61
  br label %65

65:                                               ; preds = %64, %45
  br label %66

66:                                               ; preds = %65
  %67 = load i32, ptr %11, align 4, !tbaa !28
  %68 = load i32, ptr %8, align 4, !tbaa !28
  %69 = icmp slt i32 %67, %68
  br i1 %69, label %18, label %70, !llvm.loop !45

70:                                               ; preds = %66
  %71 = load ptr, ptr %6, align 8, !tbaa !4
  call void (ptr, i32, ptr, ...) @av_log(ptr noundef %71, i32 noundef 16, ptr noundef @.str.11)
  store i32 -5, ptr %5, align 4
  store i32 1, ptr %13, align 4
  br label %72

72:                                               ; preds = %70, %54, %35
  call void @llvm.lifetime.end.p0(i64 4, ptr %12) #10
  call void @llvm.lifetime.end.p0(i64 4, ptr %11) #10
  call void @llvm.lifetime.end.p0(i64 8, ptr %10) #10
  %73 = load i32, ptr %5, align 4
  ret i32 %73
}

; Function Attrs: nounwind uwtable
define i32 @ff_rtsp_parse_streaming_commands(ptr noundef %0) #0 {
  %2 = alloca i32, align 4
  %3 = alloca ptr, align 8
  %4 = alloca ptr, align 8
  %5 = alloca [4096 x i8], align 16
  %6 = alloca [10 x i8], align 1
  %7 = alloca [500 x i8], align 16
  %8 = alloca i32, align 4
  %9 = alloca i32, align 4
  %10 = alloca %struct.RTSPMessageHeader, align 8
  %11 = alloca i32, align 4
  %12 = alloca i32, align 4
  store ptr %0, ptr %3, align 8, !tbaa !4
  call void @llvm.lifetime.start.p0(i64 8, ptr %4) #10
  %13 = load ptr, ptr %3, align 8, !tbaa !4
  %14 = getelementptr inbounds nuw %struct.AVFormatContext, ptr %13, i32 0, i32 3
  %15 = load ptr, ptr %14, align 8, !tbaa !9
  store ptr %15, ptr %4, align 8, !tbaa !26
  call void @llvm.lifetime.start.p0(i64 4096, ptr %5) #10
  call void @llvm.lifetime.start.p0(i64 10, ptr %6) #10
  call void @llvm.lifetime.start.p0(i64 500, ptr %7) #10
  call void @llvm.lifetime.start.p0(i64 4, ptr %8) #10
  call void @llvm.lifetime.start.p0(i64 4, ptr %9) #10
  store i32 0, ptr %9, align 4, !tbaa !28
  call void @llvm.lifetime.start.p0(i64 6960, ptr %10) #10
  call void @llvm.memset.p0.i64(ptr align 8 %10, i8 0, i64 6960, i1 false)
  call void @llvm.lifetime.start.p0(i64 4, ptr %11) #10
  %16 = load ptr, ptr %3, align 8, !tbaa !4
  %17 = getelementptr inbounds [4096 x i8], ptr %5, i64 0, i64 0
  %18 = call i32 @read_line(ptr noundef %16, ptr noundef %17, i32 noundef 4096, ptr noundef %9)
  store i32 %18, ptr %8, align 4, !tbaa !28
  %19 = load i32, ptr %8, align 4, !tbaa !28
  %20 = icmp slt i32 %19, 0
  br i1 %20, label %21, label %23

21:                                               ; preds = %1
  %22 = load i32, ptr %8, align 4, !tbaa !28
  store i32 %22, ptr %2, align 4
  store i32 1, ptr %12, align 4
  br label %85

23:                                               ; preds = %1
  %24 = load ptr, ptr %3, align 8, !tbaa !4
  %25 = load i32, ptr %9, align 4, !tbaa !28
  %26 = getelementptr inbounds [4096 x i8], ptr %5, i64 0, i64 0
  call void (ptr, i32, ptr, ...) @av_log(ptr noundef %24, i32 noundef 56, ptr noundef @.str, i32 noundef %25, ptr noundef %26)
  %27 = load ptr, ptr %3, align 8, !tbaa !4
  %28 = getelementptr inbounds [4096 x i8], ptr %5, i64 0, i64 0
  %29 = load i32, ptr %9, align 4, !tbaa !28
  %30 = getelementptr inbounds [500 x i8], ptr %7, i64 0, i64 0
  %31 = getelementptr inbounds [10 x i8], ptr %6, i64 0, i64 0
  %32 = call i32 @parse_command_line(ptr noundef %27, ptr noundef %28, i32 noundef %29, ptr noundef %30, i32 noundef 500, ptr noundef %31, i32 noundef 10, ptr noundef %11)
  store i32 %32, ptr %8, align 4, !tbaa !28
  %33 = load i32, ptr %8, align 4, !tbaa !28
  %34 = icmp ne i32 %33, 0
  br i1 %34, label %35, label %38

35:                                               ; preds = %23
  %36 = load ptr, ptr %3, align 8, !tbaa !4
  call void (ptr, i32, ptr, ...) @av_log(ptr noundef %36, i32 noundef 16, ptr noundef @.str.1)
  %37 = load i32, ptr %8, align 4, !tbaa !28
  store i32 %37, ptr %2, align 4
  store i32 1, ptr %12, align 4
  br label %85

38:                                               ; preds = %23
  %39 = load ptr, ptr %3, align 8, !tbaa !4
  %40 = getelementptr inbounds [10 x i8], ptr %6, i64 0, i64 0
  %41 = call i32 @rtsp_read_request(ptr noundef %39, ptr noundef %10, ptr noundef %40)
  store i32 %41, ptr %8, align 4, !tbaa !28
  %42 = load i32, ptr %8, align 4, !tbaa !28
  %43 = icmp ne i32 %42, 0
  br i1 %43, label %44, label %46

44:                                               ; preds = %38
  %45 = load i32, ptr %8, align 4, !tbaa !28
  store i32 %45, ptr %2, align 4
  store i32 1, ptr %12, align 4
  br label %85

46:                                               ; preds = %38
  %47 = load ptr, ptr %4, align 8, !tbaa !26
  %48 = getelementptr inbounds nuw %struct.RTSPState, ptr %47, i32 0, i32 6
  %49 = load i32, ptr %48, align 8, !tbaa !29
  %50 = add nsw i32 %49, 1
  store i32 %50, ptr %48, align 8, !tbaa !29
  %51 = load i32, ptr %11, align 4, !tbaa !28
  %52 = icmp eq i32 %51, 5
  br i1 %52, label %53, label %61

53:                                               ; preds = %46
  %54 = load ptr, ptr %4, align 8, !tbaa !26
  %55 = getelementptr inbounds nuw %struct.RTSPState, ptr %54, i32 0, i32 4
  store i32 2, ptr %55, align 8, !tbaa !37
  %56 = load ptr, ptr %3, align 8, !tbaa !4
  %57 = getelementptr inbounds nuw %struct.RTSPMessageHeader, ptr %10, i32 0, i32 6
  %58 = load i32, ptr %57, align 8, !tbaa !38
  %59 = trunc i32 %58 to i16
  %60 = call i32 @rtsp_send_reply(ptr noundef %56, i32 noundef 200, ptr noundef null, i16 noundef zeroext %59)
  store i32 %60, ptr %8, align 4, !tbaa !28
  br label %83

61:                                               ; preds = %46
  %62 = load i32, ptr %11, align 4, !tbaa !28
  %63 = icmp eq i32 %62, 2
  br i1 %63, label %64, label %70

64:                                               ; preds = %61
  %65 = load ptr, ptr %3, align 8, !tbaa !4
  %66 = getelementptr inbounds nuw %struct.RTSPMessageHeader, ptr %10, i32 0, i32 6
  %67 = load i32, ptr %66, align 8, !tbaa !38
  %68 = trunc i32 %67 to i16
  %69 = call i32 @rtsp_send_reply(ptr noundef %65, i32 noundef 200, ptr noundef @.str.2, i16 noundef zeroext %68)
  store i32 %69, ptr %8, align 4, !tbaa !28
  br label %82

70:                                               ; preds = %61
  %71 = load i32, ptr %11, align 4, !tbaa !28
  %72 = icmp eq i32 %71, 6
  br i1 %72, label %73, label %81

73:                                               ; preds = %70
  %74 = load ptr, ptr %4, align 8, !tbaa !26
  %75 = getelementptr inbounds nuw %struct.RTSPState, ptr %74, i32 0, i32 4
  store i32 0, ptr %75, align 8, !tbaa !37
  %76 = load ptr, ptr %3, align 8, !tbaa !4
  %77 = getelementptr inbounds nuw %struct.RTSPMessageHeader, ptr %10, i32 0, i32 6
  %78 = load i32, ptr %77, align 8, !tbaa !38
  %79 = trunc i32 %78 to i16
  %80 = call i32 @rtsp_send_reply(ptr noundef %76, i32 noundef 200, ptr noundef null, i16 noundef zeroext %79)
  store i32 %80, ptr %8, align 4, !tbaa !28
  br label %81

81:                                               ; preds = %73, %70
  br label %82

82:                                               ; preds = %81, %64
  br label %83

83:                                               ; preds = %82, %53
  %84 = load i32, ptr %8, align 4, !tbaa !28
  store i32 %84, ptr %2, align 4
  store i32 1, ptr %12, align 4
  br label %85

85:                                               ; preds = %83, %44, %35, %21
  call void @llvm.lifetime.end.p0(i64 4, ptr %11) #10
  call void @llvm.lifetime.end.p0(i64 6960, ptr %10) #10
  call void @llvm.lifetime.end.p0(i64 4, ptr %9) #10
  call void @llvm.lifetime.end.p0(i64 4, ptr %8) #10
  call void @llvm.lifetime.end.p0(i64 500, ptr %7) #10
  call void @llvm.lifetime.end.p0(i64 10, ptr %6) #10
  call void @llvm.lifetime.end.p0(i64 4096, ptr %5) #10
  call void @llvm.lifetime.end.p0(i64 8, ptr %4) #10
  %86 = load i32, ptr %2, align 4
  ret i32 %86
}