; Function Attrs: nounwind uwtable
define range(i32 -2147483648, 1) i32 @ff_rtsp_parse_streaming_commands(ptr noundef %0) local_unnamed_addr #0 {
  %2 = alloca [4096 x i8], align 16
  %3 = alloca [10 x i8], align 1
  %4 = alloca [500 x i8], align 16
  %5 = alloca %struct.RTSPMessageHeader, align 8
  %6 = alloca i32, align 4
  %7 = getelementptr inbounds nuw i8, ptr %0, i64 24
  %8 = load ptr, ptr %7, align 8, !tbaa !4
  call void @llvm.lifetime.start.p0(i64 4096, ptr nonnull %2) #11
  call void @llvm.lifetime.start.p0(i64 10, ptr nonnull %3) #11
  call void @llvm.lifetime.start.p0(i64 500, ptr nonnull %4) #11
  call void @llvm.lifetime.start.p0(i64 6960, ptr nonnull %5) #11
  call void @llvm.memset.p0.i64(ptr noundef nonnull align 8 dereferenceable(6960) %5, i8 0, i64 6960, i1 false)
  call void @llvm.lifetime.start.p0(i64 4, ptr nonnull %6) #11
  %9 = getelementptr inbounds nuw i8, ptr %8, i64 8
  br label %10

10:                                               ; preds = %21, %1
  %.0.i = phi i32 [ 0, %1 ], [ %.1.i, %21 ]
  %11 = load ptr, ptr %9, align 8, !tbaa !24
  %12 = sext i32 %.0.i to i64
  %13 = getelementptr inbounds i8, ptr %2, i64 %12
  %14 = call i32 @ffurl_read_complete(ptr noundef %11, ptr noundef nonnull %13, i32 noundef 1) #11
  %15 = icmp slt i32 %14, 1
  br i1 %15, label %16, label %17

16:                                               ; preds = %10
  %.not.i = icmp eq i32 %14, 0
  %spec.select = select i1 %.not.i, i32 -541478725, i32 %14
  br label %read_line.exit.thread

17:                                               ; preds = %10
  %18 = load i8, ptr %13, align 1, !tbaa !33
  switch i8 %18, label %19 [
    i8 13, label %21
    i8 10, label %24
  ]

19:                                               ; preds = %17
  %20 = add nsw i32 %.0.i, 1
  br label %21

21:                                               ; preds = %19, %17
  %.1.i = phi i32 [ %.0.i, %17 ], [ %20, %19 ]
  %22 = icmp slt i32 %.1.i, 4096
  br i1 %22, label %10, label %23, !llvm.loop !34

23:                                               ; preds = %21
  call void (ptr, i32, ptr, ...) @av_log(ptr noundef %0, i32 noundef 16, ptr noundef nonnull @.str.11) #11
  br label %read_line.exit.thread

24:                                               ; preds = %17
  store i8 0, ptr %13, align 1, !tbaa !33
  call void (ptr, i32, ptr, ...) @av_log(ptr noundef %0, i32 noundef 56, ptr noundef nonnull @.str, i32 noundef %.0.i, ptr noundef nonnull %2) #11
  %25 = call fastcc i32 @parse_command_line(ptr noundef %0, ptr noundef %2, ptr noundef %4, ptr noundef %3, ptr noundef %6)
  %.not = icmp eq i32 %25, 0
  br i1 %.not, label %27, label %26

26:                                               ; preds = %24
  call void (ptr, i32, ptr, ...) @av_log(ptr noundef %0, i32 noundef 16, ptr noundef nonnull @.str.1) #11
  br label %read_line.exit.thread

27:                                               ; preds = %24
  %28 = call fastcc i32 @rtsp_read_request(ptr noundef %0, ptr noundef %5, ptr noundef nonnull %3)
  %.not24 = icmp eq i32 %28, 0
  br i1 %.not24, label %29, label %read_line.exit.thread

29:                                               ; preds = %27
  %30 = getelementptr inbounds nuw i8, ptr %8, i64 48
  %31 = load i32, ptr %30, align 8, !tbaa !36
  %32 = add nsw i32 %31, 1
  store i32 %32, ptr %30, align 8, !tbaa !36
  %33 = load i32, ptr %6, align 4, !tbaa !37
  switch i32 %33, label %read_line.exit.thread [
    i32 5, label %34
    i32 2, label %40
    i32 6, label %45
  ]

34:                                               ; preds = %29
  %35 = getelementptr inbounds nuw i8, ptr %8, i64 32
  store i32 2, ptr %35, align 8, !tbaa !38
  %36 = getelementptr inbounds nuw i8, ptr %5, i64 1824
  %37 = load i32, ptr %36, align 8, !tbaa !39
  %38 = trunc i32 %37 to i16
  %39 = call fastcc i32 @rtsp_send_reply(ptr noundef %0, i32 noundef 200, ptr noundef null, i16 noundef zeroext %38)
  br label %read_line.exit.thread

40:                                               ; preds = %29
  %41 = getelementptr inbounds nuw i8, ptr %5, i64 1824
  %42 = load i32, ptr %41, align 8, !tbaa !39
  %43 = trunc i32 %42 to i16
  %44 = call fastcc i32 @rtsp_send_reply(ptr noundef %0, i32 noundef 200, ptr noundef nonnull @.str.2, i16 noundef zeroext %43)
  br label %read_line.exit.thread

45:                                               ; preds = %29
  %46 = getelementptr inbounds nuw i8, ptr %8, i64 32
  store i32 0, ptr %46, align 8, !tbaa !38
  %47 = getelementptr inbounds nuw i8, ptr %5, i64 1824
  %48 = load i32, ptr %47, align 8, !tbaa !39
  %49 = trunc i32 %48 to i16
  %50 = call fastcc i32 @rtsp_send_reply(ptr noundef %0, i32 noundef 200, ptr noundef null, i16 noundef zeroext %49)
  br label %read_line.exit.thread

read_line.exit.thread:                            ; preds = %16, %23, %34, %45, %40, %29, %27, %26
  %.019 = phi i32 [ %25, %26 ], [ %28, %27 ], [ %39, %34 ], [ %44, %40 ], [ %50, %45 ], [ 0, %29 ], [ -5, %23 ], [ %spec.select, %16 ]
  call void @llvm.lifetime.end.p0(i64 4, ptr nonnull %6) #11
  call void @llvm.lifetime.end.p0(i64 6960, ptr nonnull %5) #11
  call void @llvm.lifetime.end.p0(i64 500, ptr nonnull %4) #11
  call void @llvm.lifetime.end.p0(i64 10, ptr nonnull %3) #11
  call void @llvm.lifetime.end.p0(i64 4096, ptr nonnull %2) #11
  ret i32 %.019
}